target datalayout = "e-m:e-p270:32:32-p271:32:32-p272:64:64-i64:64-i128:128-f80:128-n8:16:32:64-S128"
target triple = "x86_64-unknown-linux-gnu"

%"class.icu_75::DictionaryBreakEngine" = type { %"class.icu_75::LanguageBreakEngine", %"class.icu_75::UnicodeSet" }
%"class.icu_75::LanguageBreakEngine" = type { %"class.icu_75::UObject" }
%"class.icu_75::UObject" = type { ptr }
%"class.icu_75::UnicodeSet" = type <{ %"class.icu_75::UnicodeFilter", ptr, i32, i32, i8, [7 x i8], ptr, ptr, i32, [4 x i8], ptr, i32, [4 x i8], ptr, ptr, [25 x i32], [4 x i8] }>
%"class.icu_75::UnicodeFilter" = type { %"class.icu_75::UnicodeFunctor", %"class.icu_75::UnicodeMatcher" }
%"class.icu_75::UnicodeFunctor" = type { %"class.icu_75::UObject" }
%"class.icu_75::UnicodeMatcher" = type { ptr }

; Function Attrs: mustprogress nounwind uwtable
define internal noundef signext i8 @_ZL9U_FAILURE10UErrorCode(i32 noundef %code) #3 {
entry:
  %code.addr = alloca i32, align 4
  store i32 %code, ptr %code.addr, align 4
  %0 = load i32, ptr %code.addr, align 4
  %cmp = icmp sgt i32 %0, 0
  %conv = zext i1 %cmp to i8
  ret i8 %conv
}

; Function Attrs: mustprogress uwtable
define noundef i32 @_ZNK6icu_7521DictionaryBreakEngine10findBreaksEP5UTextiiRNS_9UVector32EaR10UErrorCode(ptr noundef nonnull align 8 dereferenceable(208) %this, ptr noundef %text, i32 noundef %startPos, i32 noundef %endPos, ptr noundef nonnull align 8 dereferenceable(32) %foundBreaks, i8 noundef signext %isPhraseBreaking, ptr noundef nonnull align 4 dereferenceable(4) %status) unnamed_addr #0 align 2 {
entry:
  %retval = alloca i32, align 4
  %this.addr = alloca ptr, align 8
  %text.addr = alloca ptr, align 8
  %startPos.addr = alloca i32, align 4
  %endPos.addr = alloca i32, align 4
  %foundBreaks.addr = alloca ptr, align 8
  %isPhraseBreaking.addr = alloca i8, align 1
  %status.addr = alloca ptr, align 8
  %result = alloca i32, align 4
  %start = alloca i32, align 4
  %current = alloca i32, align 4
  %rangeStart = alloca i32, align 4
  %rangeEnd = alloca i32, align 4
  %c = alloca i32, align 4
  store ptr %this, ptr %this.addr, align 8
  store ptr %text, ptr %text.addr, align 8
  store i32 %startPos, ptr %startPos.addr, align 4
  store i32 %endPos, ptr %endPos.addr, align 4
  store ptr %foundBreaks, ptr %foundBreaks.addr, align 8
  store i8 %isPhraseBreaking, ptr %isPhraseBreaking.addr, align 1
  store ptr %status, ptr %status.addr, align 8
  %this1 = load ptr, ptr %this.addr, align 8
  %0 = load ptr, ptr %status.addr, align 8
  %1 = load i32, ptr %0, align 4
  %call = call noundef signext i8 @_ZL9U_FAILURE10UErrorCode(i32 noundef %1)
  %tobool = icmp ne i8 %call, 0
  br i1 %tobool, label %if.then, label %if.end

if.then:                                          ; preds = %entry
  store i32 0, ptr %retval, align 4
  br label %return

if.end:                                           ; preds = %entry
  store i32 0, ptr %result, align 4
  %2 = load ptr, ptr %text.addr, align 8
  %3 = load i32, ptr %startPos.addr, align 4
  %conv = sext i32 %3 to i64
  call void @utext_setNativeIndex_75(ptr noundef %2, i64 noundef %conv)
  %4 = load ptr, ptr %text.addr, align 8
  %call2 = call i64 @utext_getNativeIndex_75(ptr noundef %4)
  %conv3 = trunc i64 %call2 to i32
  store i32 %conv3, ptr %start, align 4
  %5 = load ptr, ptr %text.addr, align 8
  %call4 = call i32 @utext_current32_75(ptr noundef %5)
  store i32 %call4, ptr %c, align 4
  br label %while.cond

while.cond:                                       ; preds = %while.body, %if.end
  %6 = load ptr, ptr %text.addr, align 8
  %call5 = call i64 @utext_getNativeIndex_75(ptr noundef %6)
  %conv6 = trunc i64 %call5 to i32
  store i32 %conv6, ptr %current, align 4
  %7 = load i32, ptr %endPos.addr, align 4
  %cmp = icmp slt i32 %conv6, %7
  br i1 %cmp, label %land.rhs, label %land.end

land.rhs:                                         ; preds = %while.cond
  %fSet = getelementptr inbounds %"class.icu_75::DictionaryBreakEngine", ptr %this1, i32 0, i32 1
  %8 = load i32, ptr %c, align 4
  %call7 = call noundef signext i8 @_ZNK6icu_7510UnicodeSet8containsEi(ptr noundef nonnull align 8 dereferenceable(200) %fSet, i32 noundef %8)
  %tobool8 = icmp ne i8 %call7, 0
  br label %land.end

land.end:                                         ; preds = %land.rhs, %while.cond
  %9 = phi i1 [ false, %while.cond ], [ %tobool8, %land.rhs ]
  br i1 %9, label %while.body, label %while.end

while.body:                                       ; preds = %land.end
  %10 = load ptr, ptr %text.addr, align 8
  %call9 = call i32 @utext_next32_75(ptr noundef %10)
  %11 = load ptr, ptr %text.addr, align 8
  %call10 = call i32 @utext_current32_75(ptr noundef %11)
  store i32 %call10, ptr %c, align 4
  br label %while.cond, !llvm.loop !4

while.end:                                        ; preds = %land.end
  %12 = load i32, ptr %start, align 4
  store i32 %12, ptr %rangeStart, align 4
  %13 = load i32, ptr %current, align 4
  store i32 %13, ptr %rangeEnd, align 4
  %14 = load ptr, ptr %text.addr, align 8
  %15 = load i32, ptr %rangeStart, align 4
  %16 = load i32, ptr %rangeEnd, align 4
  %17 = load ptr, ptr %foundBreaks.addr, align 8
  %18 = load i8, ptr %isPhraseBreaking.addr, align 1
  %19 = load ptr, ptr %status.addr, align 8
  %vtable = load ptr, ptr %this1, align 8
  %vfn = getelementptr inbounds ptr, ptr %vtable, i64 6
  %20 = load ptr, ptr %vfn, align 8
  %call11 = call noundef i32 %20(ptr noundef nonnull align 8 dereferenceable(208) %this1, ptr noundef %14, i32 noundef %15, i32 noundef %16, ptr noundef nonnull align 8 dereferenceable(32) %17, i8 noundef signext %18, ptr noundef nonnull align 4 dereferenceable(4) %19)
  store i32 %call11, ptr %result, align 4
  %21 = load ptr, ptr %text.addr, align 8
  %22 = load i32, ptr %current, align 4
  %conv12 = sext i32 %22 to i64
  call void @utext_setNativeIndex_75(ptr noundef %21, i64 noundef %conv12)
  %23 = load i32, ptr %result, align 4
  store i32 %23, ptr %retval, align 4
  br label %return

return:                                           ; preds = %while.end, %if.then
  %24 = load i32, ptr %retval, align 4
  ret i32 %24
}