; Function Attrs: mustprogress uwtable
define noundef i32 @_ZNK6icu_7521DictionaryBreakEngine10findBreaksEP5UTextiiRNS_9UVector32EaR10UErrorCode(ptr noundef nonnull align 8 dereferenceable(208) %this, ptr noundef %text, i32 noundef %startPos, i32 noundef %endPos, ptr noundef nonnull align 8 dereferenceable(32) %foundBreaks, i8 noundef signext %isPhraseBreaking, ptr noundef nonnull align 4 dereferenceable(4) %status) unnamed_addr #0 align 2 {
entry:
  %0 = load i32, ptr %status, align 4
  %cmp.i = icmp slt i32 %0, 1
  br i1 %cmp.i, label %if.end, label %return

if.end:                                           ; preds = %entry
  %conv = sext i32 %startPos to i64
  tail call void @utext_setNativeIndex_75(ptr noundef %text, i64 noundef %conv)
  %call2 = tail call i64 @utext_getNativeIndex_75(ptr noundef %text)
  %conv3 = trunc i64 %call2 to i32
  %call4 = tail call i32 @utext_current32_75(ptr noundef %text)
  %fSet = getelementptr inbounds i8, ptr %this, i64 8
  %call510 = tail call i64 @utext_getNativeIndex_75(ptr noundef %text)
  %conv611 = trunc i64 %call510 to i32
  %cmp12 = icmp slt i32 %conv611, %endPos
  br i1 %cmp12, label %land.rhs.preheader, label %while.end

land.rhs.preheader:                               ; preds = %if.end
  %call719 = tail call noundef signext i8 @_ZNK6icu_7510UnicodeSet8containsEi(ptr noundef nonnull align 8 dereferenceable(200) %fSet, i32 noundef %call4)
  %tobool8.not20 = icmp eq i8 %call719, 0
  br i1 %tobool8.not20, label %while.end, label %while.body

land.rhs:                                         ; preds = %while.body
  %call7 = tail call noundef signext i8 @_ZNK6icu_7510UnicodeSet8containsEi(ptr noundef nonnull align 8 dereferenceable(200) %fSet, i32 noundef %call10)
  %tobool8.not = icmp eq i8 %call7, 0
  br i1 %tobool8.not, label %while.end, label %while.body, !llvm.loop !4

while.body:                                       ; preds = %land.rhs.preheader, %land.rhs
  %call9 = tail call i32 @utext_next32_75(ptr noundef %text)
  %call10 = tail call i32 @utext_current32_75(ptr noundef %text)
  %call5 = tail call i64 @utext_getNativeIndex_75(ptr noundef %text)
  %conv6 = trunc i64 %call5 to i32
  %cmp = icmp slt i32 %conv6, %endPos
  br i1 %cmp, label %land.rhs, label %while.end, !llvm.loop !4

while.end:                                        ; preds = %while.body, %land.rhs, %land.rhs.preheader, %if.end
  %call5.lcssa = phi i64 [ %call510, %if.end ], [ %call510, %land.rhs.preheader ], [ %call5, %land.rhs ], [ %call5, %while.body ]
  %conv6.lcssa = phi i32 [ %conv611, %if.end ], [ %conv611, %land.rhs.preheader ], [ %conv6, %land.rhs ], [ %conv6, %while.body ]
  %vtable = load ptr, ptr %this, align 8
  %vfn = getelementptr inbounds i8, ptr %vtable, i64 48
  %1 = load ptr, ptr %vfn, align 8
  %call11 = tail call noundef i32 %1(ptr noundef nonnull align 8 dereferenceable(208) %this, ptr noundef %text, i32 noundef %conv3, i32 noundef %conv6.lcssa, ptr noundef nonnull align 8 dereferenceable(32) %foundBreaks, i8 noundef signext %isPhraseBreaking, ptr noundef nonnull align 4 dereferenceable(4) %status)
  %sext = shl i64 %call5.lcssa, 32
  %conv12 = ashr exact i64 %sext, 32
  tail call void @utext_setNativeIndex_75(ptr noundef %text, i64 noundef %conv12)
  br label %return

return:                                           ; preds = %entry, %while.end
  %retval.0 = phi i32 [ %call11, %while.end ], [ 0, %entry ]
  ret i32 %retval.0
}